ARM Linker, 5.02 [Build 28] [MDK-ARM Standard]

==============================================================================

Section Cross References

    common.o(.text) refers to sysctrl.o(.text) for SysModeChg
    common.o(.text) refers to uidiv.o(.text) for __aeabi_uidivmod
    common.o(.text) refers to system_rn821x.o(.text) for SystemCoreClockUpdate
    common.o(.text) refers to common.o(.data) for sysclk_loops
    common.o(.text) refers to system_rn821x.o(.data) for SystemCoreClock
    retarget.o(.text) refers to serial.o(.text) for sendchar
    startup_ra9103.o(RESET) refers to startup_ra9103.o(STACK) for __initial_sp
    startup_ra9103.o(RESET) refers to startup_ra9103.o(.text) for Reset_Handler
    startup_ra9103.o(RESET) refers to emu_qc.o(.text) for WDT_HANDLER
    startup_ra9103.o(.text) refers to entry.o(.ARM.Collect$$$$00000000) for __main
    sysctrl.o(.text) refers to sysctrl.o(i.__ARM_common_switch8) for __ARM_common_switch8
    system_rn821x.o(.text) refers to system_rn821x.o(.data) for SystemCoreClock
    emu_qc.o(.text) refers to common.o(.text) for WdtFeed
    emu_qc.o(.text) refers to emu_qc.o(.data) for test_flag
    emu_qc.o(.text) refers to emu_qc.o(.bss) for sendBuf
    emu_qc.o(.text) refers to sysctrl.o(.text) for SysModeChg
    entry.o(.ARM.Collect$$$$00000000) refers (Special) to entry7b.o(.ARM.Collect$$$$00000008) for _main_clock
    entry.o(.ARM.Collect$$$$00000000) refers (Special) to entry8.o(.ARM.Collect$$$$00000009) for _main_init
    entry.o(.ARM.Collect$$$$00000000) refers (Special) to entry5.o(.ARM.Collect$$$$00000004) for _main_scatterload
    entry.o(.ARM.Collect$$$$00000000) refers (Special) to entry2.o(.ARM.Collect$$$$00000001) for _main_stk
    entry2.o(.ARM.Collect$$$$00000001) refers to entry2.o(.ARM.Collect$$$$00002712) for __lit__00000000
    entry2.o(.ARM.Collect$$$$00002712) refers to startup_ra9103.o(STACK) for __initial_sp
    entry2.o(__vectab_stack_and_reset_area) refers to startup_ra9103.o(STACK) for __initial_sp
    entry2.o(__vectab_stack_and_reset_area) refers to entry.o(.ARM.Collect$$$$00000000) for __main
    entry5.o(.ARM.Collect$$$$00000004) refers to init.o(.text) for __scatterload
    entry8.o(.ARM.Collect$$$$00000009) refers to emu_qc.o(.text) for main
    init.o(.text) refers to entry5.o(.ARM.Collect$$$$00000004) for __main_after_scatterload


==============================================================================

Removing Unused input sections from the image.

    Removing common.o(.rev16_text), (4 bytes).
    Removing common.o(.revsh_text), (4 bytes).
    Removing nvm.o(.rev16_text), (4 bytes).
    Removing nvm.o(.revsh_text), (4 bytes).
    Removing nvm.o(.text), (532 bytes).
    Removing retarget.o(.text), (54 bytes).
    Removing serial.o(.rev16_text), (4 bytes).
    Removing serial.o(.revsh_text), (4 bytes).
    Removing serial.o(.text), (84 bytes).
    Removing startup_ra9103.o(HEAP), (0 bytes).
    Removing sysctrl.o(.rev16_text), (4 bytes).
    Removing sysctrl.o(.revsh_text), (4 bytes).
    Removing system_rn821x.o(.rev16_text), (4 bytes).
    Removing system_rn821x.o(.revsh_text), (4 bytes).
    Removing emu_qc.o(.rev16_text), (4 bytes).
    Removing emu_qc.o(.revsh_text), (4 bytes).

16 unused section(s) (total 718 bytes) removed from the image.

==============================================================================

Image Symbol Table

    Local Symbols

    Symbol Name                              Value     Ov Type        Size  Object(Section)

    RESET                                    0x00000000   Section      192  startup_ra9103.o(RESET)
    ../clib/microlib/division.c              0x00000000   Number         0  uidiv.o ABSOLUTE
    ../clib/microlib/init/entry.s            0x00000000   Number         0  entry.o ABSOLUTE
    ../clib/microlib/init/entry.s            0x00000000   Number         0  entry8.o ABSOLUTE
    ../clib/microlib/init/entry.s            0x00000000   Number         0  entry7b.o ABSOLUTE
    ../clib/microlib/init/entry.s            0x00000000   Number         0  entry7a.o ABSOLUTE
    ../clib/microlib/init/entry.s            0x00000000   Number         0  entry5.o ABSOLUTE
    ../clib/microlib/init/entry.s            0x00000000   Number         0  entry2.o ABSOLUTE
    ..\\src\\EMU_QC.c                        0x00000000   Number         0  emu_qc.o ABSOLUTE
    ..\\src\\common.c                        0x00000000   Number         0  common.o ABSOLUTE
    ..\\src\\nvm.c                           0x00000000   Number         0  nvm.o ABSOLUTE
    ..\\src\\serial.c                        0x00000000   Number         0  serial.o ABSOLUTE
    ..\\src\\sysctrl.c                       0x00000000   Number         0  sysctrl.o ABSOLUTE
    ..\\src\\system_RN821x.c                 0x00000000   Number         0  system_rn821x.o ABSOLUTE
    ..\src\EMU_QC.c                          0x00000000   Number         0  emu_qc.o ABSOLUTE
    ..\src\Retarget.c                        0x00000000   Number         0  retarget.o ABSOLUTE
    ..\src\common.c                          0x00000000   Number         0  common.o ABSOLUTE
    ..\src\nvm.c                             0x00000000   Number         0  nvm.o ABSOLUTE
    ..\src\serial.c                          0x00000000   Number         0  serial.o ABSOLUTE
    ..\src\startup_RA9103.s                  0x00000000   Number         0  startup_ra9103.o ABSOLUTE
    ..\src\sysctrl.c                         0x00000000   Number         0  sysctrl.o ABSOLUTE
    ..\src\system_RN821x.c                   0x00000000   Number         0  system_rn821x.o ABSOLUTE
    dc.s                                     0x00000000   Number         0  dc.o ABSOLUTE
    handlers.s                               0x00000000   Number         0  handlers.o ABSOLUTE
    init.s                                   0x00000000   Number         0  init.o ABSOLUTE
    .ARM.Collect$$$$00000000                 0x000000c0   Section        0  entry.o(.ARM.Collect$$$$00000000)
    .ARM.Collect$$$$00000001                 0x000000c0   Section        4  entry2.o(.ARM.Collect$$$$00000001)
    .ARM.Collect$$$$00000004                 0x000000c4   Section        4  entry5.o(.ARM.Collect$$$$00000004)
    .ARM.Collect$$$$00000008                 0x000000c8   Section        0  entry7b.o(.ARM.Collect$$$$00000008)
    .ARM.Collect$$$$00000009                 0x000000c8   Section        8  entry8.o(.ARM.Collect$$$$00000009)
    .ARM.Collect$$$$00002712                 0x000000d0   Section        4  entry2.o(.ARM.Collect$$$$00002712)
    __lit__00000000                          0x000000d0   Data           4  entry2.o(.ARM.Collect$$$$00002712)
    .text                                    0x000000d4   Section        0  common.o(.text)
    .text                                    0x000004c4   Section       80  startup_ra9103.o(.text)
    .text                                    0x00000514   Section        0  sysctrl.o(.text)
    .text                                    0x00000cc0   Section        0  system_rn821x.o(.text)
    .text                                    0x00000d20   Section        0  emu_qc.o(.text)
    NVIC_EnableIRQ                           0x00001df1   Thumb Code    14  emu_qc.o(.text)
    .text                                    0x00001e1c   Section        0  uidiv.o(.text)
    .text                                    0x00001e48   Section       36  init.o(.text)
    i.__ARM_common_switch8                   0x00001e6c   Section        0  sysctrl.o(i.__ARM_common_switch8)
    i.__scatterload_copy                     0x00001e88   Section       14  handlers.o(i.__scatterload_copy)
    i.__scatterload_null                     0x00001e96   Section        2  handlers.o(i.__scatterload_null)
    i.__scatterload_zeroinit                 0x00001e98   Section       14  handlers.o(i.__scatterload_zeroinit)
    .data                                    0x00002000   Section        4  common.o(.data)
    .data                                    0x00002004   Section        4  system_rn821x.o(.data)
    .data                                    0x00002008   Section       32  emu_qc.o(.data)
    .bss                                     0x00002028   Section       32  emu_qc.o(.bss)
    STACK                                    0x00002048   Section     2048  startup_ra9103.o(STACK)

    Global Symbols

    Symbol Name                              Value     Ov Type        Size  Object(Section)

    BuildAttributes$$THM_ISAv3M$S$PE$A:L22$X:L11$S22$IEEE1$IW$USESV6$~STKCKD$USESV7$~SHL$OSPACE$EBA8$MICROLIB$REQ8$PRES8$EABIv2 0x00000000   Number         0  anon$$obj.o ABSOLUTE
    __ARM_use_no_argv                        0x00000000   Number         0  emu_qc.o ABSOLUTE
    __Vectors                                0x00000000   Data           4  startup_ra9103.o(RESET)
    __decompress                              - Undefined Weak Reference
    _clock_init                               - Undefined Weak Reference
    __Vectors_End                            0x000000c0   Data           0  startup_ra9103.o(RESET)
    __Vectors_Size                           0x000000c0   Number         0  startup_ra9103.o ABSOLUTE
    __main                                   0x000000c1   Thumb Code     0  entry.o(.ARM.Collect$$$$00000000)
    _main_stk                                0x000000c1   Thumb Code     0  entry2.o(.ARM.Collect$$$$00000001)
    _main_scatterload                        0x000000c5   Thumb Code     0  entry5.o(.ARM.Collect$$$$00000004)
    __main_after_scatterload                 0x000000c9   Thumb Code     0  entry5.o(.ARM.Collect$$$$00000004)
    _main_clock                              0x000000c9   Thumb Code     0  entry7b.o(.ARM.Collect$$$$00000008)
    _main_init                               0x000000c9   Thumb Code     0  entry8.o(.ARM.Collect$$$$00000009)
    getSysclk                                0x000000d5   Thumb Code    80  common.o(.text)
    sysclkLoop                               0x00000125   Thumb Code    36  common.o(.text)
    setBaud                                  0x00000149   Thumb Code    84  common.o(.text)
    uartInit                                 0x0000019d   Thumb Code   228  common.o(.text)
    sendStr                                  0x00000281   Thumb Code    94  common.o(.text)
    sendChar                                 0x000002df   Thumb Code    76  common.o(.text)
    WdtFeed                                  0x0000032b   Thumb Code     8  common.o(.text)
    exitPass                                 0x00000333   Thumb Code    68  common.o(.text)
    exitFail                                 0x00000377   Thumb Code   112  common.o(.text)
    uDelay                                   0x000003e7   Thumb Code    88  common.o(.text)
    WdtInit                                  0x0000043f   Thumb Code    80  common.o(.text)
    Reset_Handler                            0x000004c5   Thumb Code     4  startup_ra9103.o(.text)
    NMI_Handler                              0x000004c9   Thumb Code     2  startup_ra9103.o(.text)
    HardFault_Handler                        0x000004cb   Thumb Code     2  startup_ra9103.o(.text)
    SVC_Handler                              0x000004cd   Thumb Code     2  startup_ra9103.o(.text)
    PendSV_Handler                           0x000004cf   Thumb Code     2  startup_ra9103.o(.text)
    SysTick_Handler                          0x000004d1   Thumb Code     2  startup_ra9103.o(.text)
    EXT0_HANDLER                             0x000004d3   Thumb Code     2  startup_ra9103.o(.text)
    EXT1_HANDLER                             0x000004d5   Thumb Code     2  startup_ra9103.o(.text)
    EXT2_HANDLER                             0x000004d7   Thumb Code     2  startup_ra9103.o(.text)
    EXT3_HANDLER                             0x000004d9   Thumb Code     2  startup_ra9103.o(.text)
    EXT4_HANDLER                             0x000004db   Thumb Code     2  startup_ra9103.o(.text)
    EXT5_HANDLER                             0x000004dd   Thumb Code     2  startup_ra9103.o(.text)
    EXT6_HANDLER                             0x000004df   Thumb Code     2  startup_ra9103.o(.text)
    EXT7_HANDLER                             0x000004e1   Thumb Code     2  startup_ra9103.o(.text)
    NVM_HANDLER                              0x000004e3   Thumb Code     2  startup_ra9103.o(.text)
    DMA_HANDLER                              0x000004e5   Thumb Code     2  startup_ra9103.o(.text)
    CT_HANDLER                               0x000004e7   Thumb Code     2  startup_ra9103.o(.text)
    RTC_HANDLER                              0x000004e9   Thumb Code     2  startup_ra9103.o(.text)
    EMU_HANDLER                              0x000004eb   Thumb Code     2  startup_ra9103.o(.text)
    MADC_HANDLER                             0x000004ed   Thumb Code     2  startup_ra9103.o(.text)
    UART0_HANDLER                            0x000004ef   Thumb Code     2  startup_ra9103.o(.text)
    UART1_HANDLER                            0x000004f1   Thumb Code     2  startup_ra9103.o(.text)
    UART2_HANDLER                            0x000004f3   Thumb Code     2  startup_ra9103.o(.text)
    UART3_HANDLER                            0x000004f5   Thumb Code     2  startup_ra9103.o(.text)
    SPI_HANDLER                              0x000004f7   Thumb Code     2  startup_ra9103.o(.text)
    I2C_HANDLER                              0x000004f9   Thumb Code     2  startup_ra9103.o(.text)
    ISO78161_HANDLER                         0x000004fb   Thumb Code     2  startup_ra9103.o(.text)
    ISO78160_HANDLER                         0x000004fd   Thumb Code     2  startup_ra9103.o(.text)
    TC0_HANDLER                              0x000004ff   Thumb Code     2  startup_ra9103.o(.text)
    TC1_HANDLER                              0x00000501   Thumb Code     2  startup_ra9103.o(.text)
    TC2_HANDLER                              0x00000503   Thumb Code     2  startup_ra9103.o(.text)
    TC3_HANDLER                              0x00000505   Thumb Code     2  startup_ra9103.o(.text)
    KBI_HANDLER                              0x00000509   Thumb Code     2  startup_ra9103.o(.text)
    LCD_HANDLER                              0x0000050b   Thumb Code     2  startup_ra9103.o(.text)
    VCH_HANDLER                              0x0000050d   Thumb Code     2  startup_ra9103.o(.text)
    CMP_HANDLER                              0x0000050f   Thumb Code     2  startup_ra9103.o(.text)
    sysmodeWrite                             0x00000515   Thumb Code   230  sysctrl.o(.text)
    setMipTW                                 0x000005fb   Thumb Code   100  sysctrl.o(.text)
    SysModeChg                               0x0000065f   Thumb Code   482  sysctrl.o(.text)
    eeChkSum                                 0x00000841   Thumb Code    58  sysctrl.o(.text)
    _getMipAddr                              0x0000087b   Thumb Code    98  sysctrl.o(.text)
    sysUpdate                                0x000008dd   Thumb Code   944  sysctrl.o(.text)
    SystemCoreClockUpdate                    0x00000cc1   Thumb Code    86  system_rn821x.o(.text)
    SystemInit                               0x00000d17   Thumb Code     2  system_rn821x.o(.text)
    Fail                                     0x00000d21   Thumb Code    12  emu_qc.o(.text)
    Pass                                     0x00000d2d   Thumb Code    16  emu_qc.o(.text)
    test_flag_init                           0x00000d3d   Thumb Code    80  emu_qc.o(.text)
    WDT_HANDLER                              0x00000d8d   Thumb Code    22  emu_qc.o(.text)
    WDT_OFF                                  0x00000da3   Thumb Code    66  emu_qc.o(.text)
    swDelay                                  0x00000de5   Thumb Code    28  emu_qc.o(.text)
    reg_wr1                                  0x00000e01   Thumb Code  3090  emu_qc.o(.text)
    reg_wr2                                  0x00001a13   Thumb Code   812  emu_qc.o(.text)
    main                                     0x00001d3f   Thumb Code   178  emu_qc.o(.text)
    __aeabi_uidiv                            0x00001e1d   Thumb Code     0  uidiv.o(.text)
    __aeabi_uidivmod                         0x00001e1d   Thumb Code    44  uidiv.o(.text)
    __scatterload                            0x00001e49   Thumb Code    28  init.o(.text)
    __scatterload_rt2                        0x00001e49   Thumb Code     0  init.o(.text)
    __ARM_common_switch8                     0x00001e6d   Thumb Code    28  sysctrl.o(i.__ARM_common_switch8)
    __scatterload_copy                       0x00001e89   Thumb Code    14  handlers.o(i.__scatterload_copy)
    __scatterload_null                       0x00001e97   Thumb Code     2  handlers.o(i.__scatterload_null)
    __scatterload_zeroinit                   0x00001e99   Thumb Code    14  handlers.o(i.__scatterload_zeroinit)
    Region$$Table$$Base                      0x00001ea8   Number         0  anon$$obj.o(Region$$Table)
    Region$$Table$$Limit                     0x00001ec8   Number         0  anon$$obj.o(Region$$Table)
    sysclk_loops                             0x00002000   Data           4  common.o(.data)
    SystemCoreClock                          0x00002004   Data           4  system_rn821x.o(.data)
    recvPtr                                  0x00002008   Data           4  emu_qc.o(.data)
    i                                        0x0000200c   Data           4  emu_qc.o(.data)
    j                                        0x00002010   Data           4  emu_qc.o(.data)
    reg_value                                0x00002014   Data           4  emu_qc.o(.data)
    data                                     0x00002018   Data           4  emu_qc.o(.data)
    data1                                    0x0000201c   Data           4  emu_qc.o(.data)
    data2                                    0x00002020   Data           4  emu_qc.o(.data)
    test_flag                                0x00002024   Data           4  emu_qc.o(.data)
    sendBuf                                  0x00002028   Data          16  emu_qc.o(.bss)
    recvBuf                                  0x00002038   Data          16  emu_qc.o(.bss)
    __initial_sp                             0x00002848   Data           0  startup_ra9103.o(STACK)



==============================================================================

Memory Map of the image

  Image Entry point : 0x000000c1

  Load Region LR_IROM1 (Base: 0x00000000, Size: 0x00001ef0, Max: 0x00002000, ABSOLUTE)

    Execution Region ER_IROM1 (Base: 0x00000000, Size: 0x00001ec8, Max: 0x00002000, ABSOLUTE)

    Base Addr    Size         Type   Attr      Idx    E Section Name        Object

    0x00000000   0x000000c0   Data   RO          137    RESET               startup_ra9103.o
    0x000000c0   0x00000000   Code   RO          217  * .ARM.Collect$$$$00000000  mc_p.l(entry.o)
    0x000000c0   0x00000004   Code   RO          222    .ARM.Collect$$$$00000001  mc_p.l(entry2.o)
    0x000000c4   0x00000004   Code   RO          225    .ARM.Collect$$$$00000004  mc_p.l(entry5.o)
    0x000000c8   0x00000000   Code   RO          227    .ARM.Collect$$$$00000008  mc_p.l(entry7b.o)
    0x000000c8   0x00000008   Code   RO          228    .ARM.Collect$$$$00000009  mc_p.l(entry8.o)
    0x000000d0   0x00000004   Code   RO          223    .ARM.Collect$$$$00002712  mc_p.l(entry2.o)
    0x000000d4   0x000003f0   Code   RO            3    .text               common.o
    0x000004c4   0x00000050   Code   RO          138    .text               startup_ra9103.o
    0x00000514   0x000007ac   Code   RO          144    .text               sysctrl.o
    0x00000cc0   0x00000060   Code   RO          166    .text               system_rn821x.o
    0x00000d20   0x000010fc   Code   RO          192    .text               emu_qc.o
    0x00001e1c   0x0000002c   Code   RO          220    .text               mc_p.l(uidiv.o)
    0x00001e48   0x00000024   Code   RO          229    .text               mc_p.l(init.o)
    0x00001e6c   0x0000001c   Code   RO          159    i.__ARM_common_switch8  sysctrl.o
    0x00001e88   0x0000000e   Code   RO          233    i.__scatterload_copy  mc_p.l(handlers.o)
    0x00001e96   0x00000002   Code   RO          234    i.__scatterload_null  mc_p.l(handlers.o)
    0x00001e98   0x0000000e   Code   RO          235    i.__scatterload_zeroinit  mc_p.l(handlers.o)
    0x00001ea6   0x00000002   PAD
    0x00001ea8   0x00000020   Data   RO          231    Region$$Table       anon$$obj.o


    Execution Region RW_IRAM1 (Base: 0x00002000, Size: 0x00000848, Max: 0x00001700, ABSOLUTE)

    Base Addr    Size         Type   Attr      Idx    E Section Name        Object

    0x00002000   0x00000004   Data   RW            4    .data               common.o
    0x00002004   0x00000004   Data   RW          167    .data               system_rn821x.o
    0x00002008   0x00000020   Data   RW          194    .data               emu_qc.o
    0x00002028   0x00000020   Zero   RW          193    .bss                emu_qc.o
    0x00002048   0x00000800   Zero   RW          135    STACK               startup_ra9103.o


==============================================================================

Image component sizes


      Code (inc. data)   RO Data    RW Data    ZI Data      Debug   Object Name

      1008         54          0          4          0      20913   common.o
      4348        178          0         32         32       9955   emu_qc.o
         0          0          0          0          0       7940   serial.o
        80          4        192          0       2048       1732   startup_ra9103.o
      1992        120          0          0          0       5390   sysctrl.o
        96          8          0          4          0        801   system_rn821x.o

    ----------------------------------------------------------------------
      7524        364        224         40       2080      46731   Object Totals
         0          0         32          0          0          0   (incl. Generated)
         0          0          0          0          0          0   (incl. Padding)

    ----------------------------------------------------------------------

      Code (inc. data)   RO Data    RW Data    ZI Data      Debug   Library Member Name

         0          0          0          0          0          0   entry.o
         8          4          0          0          0          0   entry2.o
         4          0          0          0          0          0   entry5.o
         0          0          0          0          0          0   entry7b.o
         8          4          0          0          0          0   entry8.o
        30          0          0          0          0          0   handlers.o
        36          8          0          0          0         68   init.o
        44          0          0          0          0         72   uidiv.o

    ----------------------------------------------------------------------
       132         16          0          0          0        140   Library Totals
         2          0          0          0          0          0   (incl. Padding)

    ----------------------------------------------------------------------

      Code (inc. data)   RO Data    RW Data    ZI Data      Debug   Library Name

       130         16          0          0          0        140   mc_p.l

    ----------------------------------------------------------------------
       132         16          0          0          0        140   Library Totals

    ----------------------------------------------------------------------

==============================================================================


      Code (inc. data)   RO Data    RW Data    ZI Data      Debug   

      7656        380        224         40       2080      46555   Grand Totals
      7656        380        224         40       2080      46555   ELF Image Totals
      7656        380        224         40          0          0   ROM Totals

==============================================================================

    Total RO  Size (Code + RO Data)                 7880 (   7.70kB)
    Total RW  Size (RW Data + ZI Data)              2120 (   2.07kB)
    Total ROM Size (Code + RO Data + RW Data)       7920 (   7.73kB)

==============================================================================

